target datalayout = "e-m:e-p270:32:32-p271:32:32-p272:64:64-i64:64-i128:128-f80:128-n8:16:32:64-S128"
target triple = "x86_64-pc-linux-gnu"

%"struct.Luau::NotNull" = type { ptr }
%"struct.Luau::NotNull.0" = type { ptr }
%"struct.Luau::NotNull.1" = type { ptr }
%"struct.Luau::TypeFunctionReductionGuesser" = type { %"class.Luau::DenseHashMap", %"class.Luau::DenseHashMap", %"class.Luau::VecDeque", %"class.Luau::DenseHashSet", %"struct.Luau::NotNull", %"struct.Luau::NotNull.0", %"struct.Luau::NotNull.1" }
%"class.Luau::DenseHashMap" = type { %"class.Luau::detail::DenseHashTable" }
%"class.Luau::detail::DenseHashTable" = type <{ ptr, i64, i64, ptr, [8 x i8] }>
%"class.Luau::VecDeque" = type { ptr, i64, i64, i64 }
%"class.Luau::DenseHashSet" = type { %"class.Luau::detail::DenseHashTable.2" }
%"class.Luau::detail::DenseHashTable.2" = type <{ ptr, i64, i64, ptr, [8 x i8] }>
%"class.std::optional.5" = type { %"struct.std::_Optional_base.6" }
%"struct.std::_Optional_base.6" = type { %"struct.std::_Optional_payload.8" }
%"struct.std::_Optional_payload.8" = type { %"struct.std::_Optional_payload.base", [7 x i8] }
%"struct.std::_Optional_payload.base" = type { %"struct.std::_Optional_payload_base.base" }
%"struct.std::_Optional_payload_base.base" = type <{ %"union.std::_Optional_payload_base<std::__cxx11::basic_string<char>>::_Storage", i8 }>
%"union.std::_Optional_payload_base<std::__cxx11::basic_string<char>>::_Storage" = type { %"class.std::__cxx11::basic_string" }
%"class.std::__cxx11::basic_string" = type { %"struct.std::__cxx11::basic_string<char>::_Alloc_hider", i64, %union.anon }
%"struct.std::__cxx11::basic_string<char>::_Alloc_hider" = type { ptr }
%union.anon = type { i64, [8 x i8] }
%"struct.Luau::Type" = type { %"class.Luau::Variant", i8, [7 x i8], %"class.std::optional.5", ptr }
%"class.Luau::Variant" = type { i32, [4 x i8], [336 x i8] }

; Function Attrs: mustprogress nounwind uwtable
define linkonce_odr dso_local noundef nonnull align 8 dereferenceable(8) ptr @_ZN4Luau6detail16ItemInterfaceSetIPKNS_4TypeEE6getKeyERKS4_(ptr noundef nonnull align 8 dereferenceable(8) %0) #6 comdat align 2 {
  %2 = alloca ptr, align 8
  store ptr %0, ptr %2, align 8, !tbaa !24
  %3 = load ptr, ptr %2, align 8, !tbaa !24
  ret ptr %3
}

; Function Attrs: mustprogress nounwind uwtable
define linkonce_odr dso_local noundef i64 @_ZNK4Luau16DenseHashPointerclEPKv(ptr noundef nonnull align 1 dereferenceable(1) %0, ptr noundef %1) #6 comdat align 2 {
  %3 = alloca ptr, align 8
  %4 = alloca ptr, align 8
  store ptr %0, ptr %3, align 8, !tbaa !533
  store ptr %1, ptr %4, align 8, !tbaa !295
  %5 = load ptr, ptr %4, align 8, !tbaa !295
  %6 = ptrtoint ptr %5 to i64
  %7 = lshr i64 %6, 4
  %8 = load ptr, ptr %4, align 8, !tbaa !295
  %9 = ptrtoint ptr %8 to i64
  %10 = lshr i64 %9, 9
  %11 = xor i64 %7, %10
  ret i64 %11
}

; Function Attrs: mustprogress nounwind uwtable
define linkonce_odr dso_local noundef zeroext i1 @_ZNKSt8equal_toIPKN4Luau4TypeEEclERKS3_S6_(ptr noundef nonnull align 1 dereferenceable(1) %0, ptr noundef nonnull align 8 dereferenceable(8) %1, ptr noundef nonnull align 8 dereferenceable(8) %2) #6 comdat align 2 {
  %4 = alloca ptr, align 8
  %5 = alloca ptr, align 8
  %6 = alloca ptr, align 8
  store ptr %0, ptr %4, align 8, !tbaa !531
  store ptr %1, ptr %5, align 8, !tbaa !24
  store ptr %2, ptr %6, align 8, !tbaa !24
  %7 = load ptr, ptr %5, align 8, !tbaa !24
  %8 = load ptr, ptr %7, align 8, !tbaa !11
  %9 = load ptr, ptr %6, align 8, !tbaa !24
  %10 = load ptr, ptr %9, align 8, !tbaa !11
  %11 = icmp eq ptr %8, %10
  ret i1 %11
}

; Function Attrs: mustprogress nounwind uwtable
define linkonce_odr dso_local noundef ptr @_ZNK4Luau7VariantIJNS_9Unifiable5BoundIPKNS_4TypeEEENS1_5ErrorIS5_EENS_8FreeTypeENS_11GenericTypeENS_13PrimitiveTypeENS_13SingletonTypeENS_11BlockedTypeENS_20PendingExpansionTypeENS_12FunctionTypeENS_9TableTypeENS_13MetatableTypeENS_9ClassTypeENS_7AnyTypeENS_9UnionTypeENS_16IntersectionTypeENS_8LazyTypeENS_11UnknownTypeENS_9NeverTypeENS_12NegationTypeENS_12NoRefineTypeENS_24TypeFunctionInstanceTypeEEE6get_ifISA_EEPKT_v(ptr noundef nonnull align 8 dereferenceable(344) %0) #6 comdat align 2 {
  %2 = alloca ptr, align 8
  %3 = alloca i32, align 4
  store ptr %0, ptr %2, align 8, !tbaa !586
  %4 = load ptr, ptr %2, align 8
  call void @llvm.lifetime.start.p0(i64 4, ptr %3) #4
  store i32 3, ptr %3, align 4, !tbaa !4
  %5 = getelementptr inbounds nuw %"class.Luau::Variant", ptr %4, i32 0, i32 0
  %6 = load i32, ptr %5, align 8, !tbaa !588
  %7 = icmp eq i32 3, %6
  br i1 %7, label %8, label %10

8:                                                ; preds = %1
  %9 = getelementptr inbounds nuw %"class.Luau::Variant", ptr %4, i32 0, i32 2
  br label %11

10:                                               ; preds = %1
  br label %11

11:                                               ; preds = %10, %8
  %12 = phi ptr [ %9, %8 ], [ null, %10 ]
  call void @llvm.lifetime.end.p0(i64 4, ptr %3) #4
  ret ptr %12
}

; Function Attrs: mustprogress nounwind uwtable
define linkonce_odr dso_local noundef ptr @_ZNK4Luau7VariantIJNS_9Unifiable5BoundIPKNS_4TypeEEENS1_5ErrorIS5_EENS_8FreeTypeENS_11GenericTypeENS_13PrimitiveTypeENS_13SingletonTypeENS_11BlockedTypeENS_20PendingExpansionTypeENS_12FunctionTypeENS_9TableTypeENS_13MetatableTypeENS_9ClassTypeENS_7AnyTypeENS_9UnionTypeENS_16IntersectionTypeENS_8LazyTypeENS_11UnknownTypeENS_9NeverTypeENS_12NegationTypeENS_12NoRefineTypeENS_24TypeFunctionInstanceTypeEEE6get_ifISR_EEPKT_v(ptr noundef nonnull align 8 dereferenceable(344) %0) #6 comdat align 2 {
  %2 = alloca ptr, align 8
  %3 = alloca i32, align 4
  store ptr %0, ptr %2, align 8, !tbaa !586
  %4 = load ptr, ptr %2, align 8
  call void @llvm.lifetime.start.p0(i64 4, ptr %3) #4
  store i32 20, ptr %3, align 4, !tbaa !4
  %5 = getelementptr inbounds nuw %"class.Luau::Variant", ptr %4, i32 0, i32 0
  %6 = load i32, ptr %5, align 8, !tbaa !588
  %7 = icmp eq i32 20, %6
  br i1 %7, label %8, label %10

8:                                                ; preds = %1
  %9 = getelementptr inbounds nuw %"class.Luau::Variant", ptr %4, i32 0, i32 2
  br label %11

10:                                               ; preds = %1
  br label %11

11:                                               ; preds = %10, %8
  %12 = phi ptr [ %9, %8 ], [ null, %10 ]
  call void @llvm.lifetime.end.p0(i64 4, ptr %3) #4
  ret ptr %12
}

; Function Attrs: mustprogress uwtable
define linkonce_odr dso_local noundef ptr @_ZNK4Luau6detail14DenseHashTableIPKNS_4TypeES4_S4_NS0_16ItemInterfaceSetIS4_EENS_16DenseHashPointerESt8equal_toIS4_EE4findERKS4_(ptr noundef nonnull align 8 dereferenceable(34) %0, ptr noundef nonnull align 8 dereferenceable(8) %1) #5 comdat align 2 {
  %3 = alloca ptr, align 8
  %4 = alloca ptr, align 8
  %5 = alloca ptr, align 8
  %6 = alloca i64, align 8
  %7 = alloca i64, align 8
  %8 = alloca i64, align 8
  %9 = alloca i32, align 4
  %10 = alloca ptr, align 8
  store ptr %0, ptr %4, align 8, !tbaa !517
  store ptr %1, ptr %5, align 8, !tbaa !24
  %11 = load ptr, ptr %4, align 8
  %12 = getelementptr inbounds nuw %"class.Luau::detail::DenseHashTable.2", ptr %11, i32 0, i32 2
  %13 = load i64, ptr %12, align 8, !tbaa !527
  %14 = icmp eq i64 %13, 0
  br i1 %14, label %15, label %16

15:                                               ; preds = %2
  store ptr null, ptr %3, align 8
  br label %73

16:                                               ; preds = %2
  %17 = getelementptr inbounds i8, ptr %11, i64 33
  %18 = load ptr, ptr %5, align 8, !tbaa !24
  %19 = getelementptr inbounds nuw %"class.Luau::detail::DenseHashTable.2", ptr %11, i32 0, i32 3
  %20 = call noundef zeroext i1 @_ZNKSt8equal_toIPKN4Luau4TypeEEclERKS3_S6_(ptr noundef nonnull align 1 dereferenceable(1) %17, ptr noundef nonnull align 8 dereferenceable(8) %18, ptr noundef nonnull align 8 dereferenceable(8) %19)
  br i1 %20, label %21, label %22

21:                                               ; preds = %16
  store ptr null, ptr %3, align 8
  br label %73

22:                                               ; preds = %16
  call void @llvm.lifetime.start.p0(i64 8, ptr %6) #4
  %23 = getelementptr inbounds nuw %"class.Luau::detail::DenseHashTable.2", ptr %11, i32 0, i32 1
  %24 = load i64, ptr %23, align 8, !tbaa !521
  %25 = sub i64 %24, 1
  store i64 %25, ptr %6, align 8, !tbaa !27
  call void @llvm.lifetime.start.p0(i64 8, ptr %7) #4
  %26 = getelementptr inbounds i8, ptr %11, i64 32
  %27 = load ptr, ptr %5, align 8, !tbaa !24
  %28 = load ptr, ptr %27, align 8, !tbaa !11
  %29 = call noundef i64 @_ZNK4Luau16DenseHashPointerclEPKv(ptr noundef nonnull align 1 dereferenceable(1) %26, ptr noundef %28)
  %30 = load i64, ptr %6, align 8, !tbaa !27
  %31 = and i64 %29, %30
  store i64 %31, ptr %7, align 8, !tbaa !27
  call void @llvm.lifetime.start.p0(i64 8, ptr %8) #4
  store i64 0, ptr %8, align 8, !tbaa !27
  br label %32

32:                                               ; preds = %66, %22
  %33 = load i64, ptr %8, align 8, !tbaa !27
  %34 = load i64, ptr %6, align 8, !tbaa !27
  %35 = icmp ule i64 %33, %34
  br i1 %35, label %37, label %36

36:                                               ; preds = %32
  store i32 2, ptr %9, align 4
  br label %69

37:                                               ; preds = %32
  call void @llvm.lifetime.start.p0(i64 8, ptr %10) #4
  %38 = getelementptr inbounds nuw %"class.Luau::detail::DenseHashTable.2", ptr %11, i32 0, i32 0
  %39 = load ptr, ptr %38, align 8, !tbaa !519
  %40 = load i64, ptr %7, align 8, !tbaa !27
  %41 = getelementptr inbounds nuw ptr, ptr %39, i64 %40
  store ptr %41, ptr %10, align 8, !tbaa !24
  %42 = getelementptr inbounds i8, ptr %11, i64 33
  %43 = load ptr, ptr %10, align 8, !tbaa !24
  %44 = call noundef nonnull align 8 dereferenceable(8) ptr @_ZN4Luau6detail16ItemInterfaceSetIPKNS_4TypeEE6getKeyERKS4_(ptr noundef nonnull align 8 dereferenceable(8) %43)
  %45 = load ptr, ptr %5, align 8, !tbaa !24
  %46 = call noundef zeroext i1 @_ZNKSt8equal_toIPKN4Luau4TypeEEclERKS3_S6_(ptr noundef nonnull align 1 dereferenceable(1) %42, ptr noundef nonnull align 8 dereferenceable(8) %44, ptr noundef nonnull align 8 dereferenceable(8) %45)
  br i1 %46, label %47, label %49

47:                                               ; preds = %37
  %48 = load ptr, ptr %10, align 8, !tbaa !24
  store ptr %48, ptr %3, align 8
  store i32 1, ptr %9, align 4
  br label %63

49:                                               ; preds = %37
  %50 = getelementptr inbounds i8, ptr %11, i64 33
  %51 = load ptr, ptr %10, align 8, !tbaa !24
  %52 = call noundef nonnull align 8 dereferenceable(8) ptr @_ZN4Luau6detail16ItemInterfaceSetIPKNS_4TypeEE6getKeyERKS4_(ptr noundef nonnull align 8 dereferenceable(8) %51)
  %53 = getelementptr inbounds nuw %"class.Luau::detail::DenseHashTable.2", ptr %11, i32 0, i32 3
  %54 = call noundef zeroext i1 @_ZNKSt8equal_toIPKN4Luau4TypeEEclERKS3_S6_(ptr noundef nonnull align 1 dereferenceable(1) %50, ptr noundef nonnull align 8 dereferenceable(8) %52, ptr noundef nonnull align 8 dereferenceable(8) %53)
  br i1 %54, label %55, label %56

55:                                               ; preds = %49
  store ptr null, ptr %3, align 8
  store i32 1, ptr %9, align 4
  br label %63

56:                                               ; preds = %49
  %57 = load i64, ptr %7, align 8, !tbaa !27
  %58 = load i64, ptr %8, align 8, !tbaa !27
  %59 = add i64 %57, %58
  %60 = add i64 %59, 1
  %61 = load i64, ptr %6, align 8, !tbaa !27
  %62 = and i64 %60, %61
  store i64 %62, ptr %7, align 8, !tbaa !27
  store i32 0, ptr %9, align 4
  br label %63

63:                                               ; preds = %56, %55, %47
  call void @llvm.lifetime.end.p0(i64 8, ptr %10) #4
  %64 = load i32, ptr %9, align 4
  switch i32 %64, label %69 [
    i32 0, label %65
  ]

65:                                               ; preds = %63
  br label %66

66:                                               ; preds = %65
  %67 = load i64, ptr %8, align 8, !tbaa !27
  %68 = add i64 %67, 1
  store i64 %68, ptr %8, align 8, !tbaa !27
  br label %32, !llvm.loop !529

69:                                               ; preds = %63, %36
  call void @llvm.lifetime.end.p0(i64 8, ptr %8) #4
  %70 = load i32, ptr %9, align 4
  switch i32 %70, label %72 [
    i32 2, label %71
  ]

71:                                               ; preds = %69
  store ptr null, ptr %3, align 8
  store i32 1, ptr %9, align 4
  br label %72

72:                                               ; preds = %71, %69
  call void @llvm.lifetime.end.p0(i64 8, ptr %7) #4
  call void @llvm.lifetime.end.p0(i64 8, ptr %6) #4
  br label %73

73:                                               ; preds = %72, %21, %15
  %74 = load ptr, ptr %3, align 8
  ret ptr %74
}

; Function Attrs: mustprogress uwtable
define linkonce_odr dso_local noundef ptr @_ZN4Luau6get_ifINS_11GenericTypeEJNS_9Unifiable5BoundIPKNS_4TypeEEENS2_5ErrorIS6_EENS_8FreeTypeES1_NS_13PrimitiveTypeENS_13SingletonTypeENS_11BlockedTypeENS_20PendingExpansionTypeENS_12FunctionTypeENS_9TableTypeENS_13MetatableTypeENS_9ClassTypeENS_7AnyTypeENS_9UnionTypeENS_16IntersectionTypeENS_8LazyTypeENS_11UnknownTypeENS_9NeverTypeENS_12NegationTypeENS_12NoRefineTypeENS_24TypeFunctionInstanceTypeEEEEPKT_PKNS_7VariantIJDpT0_EEE(ptr noundef %0) #5 comdat {
  %2 = alloca ptr, align 8
  store ptr %0, ptr %2, align 8, !tbaa !586
  %3 = load ptr, ptr %2, align 8, !tbaa !586
  %4 = icmp ne ptr %3, null
  br i1 %4, label %5, label %8

5:                                                ; preds = %1
  %6 = load ptr, ptr %2, align 8, !tbaa !586
  %7 = call noundef ptr @_ZNK4Luau7VariantIJNS_9Unifiable5BoundIPKNS_4TypeEEENS1_5ErrorIS5_EENS_8FreeTypeENS_11GenericTypeENS_13PrimitiveTypeENS_13SingletonTypeENS_11BlockedTypeENS_20PendingExpansionTypeENS_12FunctionTypeENS_9TableTypeENS_13MetatableTypeENS_9ClassTypeENS_7AnyTypeENS_9UnionTypeENS_16IntersectionTypeENS_8LazyTypeENS_11UnknownTypeENS_9NeverTypeENS_12NegationTypeENS_12NoRefineTypeENS_24TypeFunctionInstanceTypeEEE6get_ifISA_EEPKT_v(ptr noundef nonnull align 8 dereferenceable(344) %6)
  br label %9

8:                                                ; preds = %1
  br label %9

9:                                                ; preds = %8, %5
  %10 = phi ptr [ %7, %5 ], [ null, %8 ]
  ret ptr %10
}

; Function Attrs: mustprogress uwtable
define linkonce_odr dso_local noundef ptr @_ZN4Luau6get_ifINS_24TypeFunctionInstanceTypeEJNS_9Unifiable5BoundIPKNS_4TypeEEENS2_5ErrorIS6_EENS_8FreeTypeENS_11GenericTypeENS_13PrimitiveTypeENS_13SingletonTypeENS_11BlockedTypeENS_20PendingExpansionTypeENS_12FunctionTypeENS_9TableTypeENS_13MetatableTypeENS_9ClassTypeENS_7AnyTypeENS_9UnionTypeENS_16IntersectionTypeENS_8LazyTypeENS_11UnknownTypeENS_9NeverTypeENS_12NegationTypeENS_12NoRefineTypeES1_EEEPKT_PKNS_7VariantIJDpT0_EEE(ptr noundef %0) #5 comdat {
  %2 = alloca ptr, align 8
  store ptr %0, ptr %2, align 8, !tbaa !586
  %3 = load ptr, ptr %2, align 8, !tbaa !586
  %4 = icmp ne ptr %3, null
  br i1 %4, label %5, label %8

5:                                                ; preds = %1
  %6 = load ptr, ptr %2, align 8, !tbaa !586
  %7 = call noundef ptr @_ZNK4Luau7VariantIJNS_9Unifiable5BoundIPKNS_4TypeEEENS1_5ErrorIS5_EENS_8FreeTypeENS_11GenericTypeENS_13PrimitiveTypeENS_13SingletonTypeENS_11BlockedTypeENS_20PendingExpansionTypeENS_12FunctionTypeENS_9TableTypeENS_13MetatableTypeENS_9ClassTypeENS_7AnyTypeENS_9UnionTypeENS_16IntersectionTypeENS_8LazyTypeENS_11UnknownTypeENS_9NeverTypeENS_12NegationTypeENS_12NoRefineTypeENS_24TypeFunctionInstanceTypeEEE6get_ifISR_EEPKT_v(ptr noundef nonnull align 8 dereferenceable(344) %6)
  br label %9

8:                                                ; preds = %1
  br label %9

9:                                                ; preds = %8, %5
  %10 = phi ptr [ %7, %5 ], [ null, %8 ]
  ret ptr %10
}

; Function Attrs: mustprogress uwtable
define linkonce_odr dso_local noundef zeroext i1 @_ZNK4Luau12DenseHashSetIPKNS_4TypeENS_16DenseHashPointerESt8equal_toIS3_EE8containsERKS3_(ptr noundef nonnull align 8 dereferenceable(40) %0, ptr noundef nonnull align 8 dereferenceable(8) %1) #5 comdat align 2 {
  %3 = alloca ptr, align 8
  %4 = alloca ptr, align 8
  store ptr %0, ptr %3, align 8, !tbaa !36
  store ptr %1, ptr %4, align 8, !tbaa !24
  %5 = load ptr, ptr %3, align 8
  %6 = getelementptr inbounds nuw %"class.Luau::DenseHashSet", ptr %5, i32 0, i32 0
  %7 = load ptr, ptr %4, align 8, !tbaa !24
  %8 = call noundef ptr @_ZNK4Luau6detail14DenseHashTableIPKNS_4TypeES4_S4_NS0_16ItemInterfaceSetIS4_EENS_16DenseHashPointerESt8equal_toIS4_EE4findERKS4_(ptr noundef nonnull align 8 dereferenceable(34) %6, ptr noundef nonnull align 8 dereferenceable(8) %7)
  %9 = icmp ne ptr %8, null
  ret i1 %9
}

; Function Attrs: mustprogress uwtable
define linkonce_odr dso_local noundef ptr @_ZN4Luau3getINS_11GenericTypeEEEPKT_PKNS_4TypeE(ptr noundef %0) #5 comdat {
  %2 = alloca ptr, align 8
  store ptr %0, ptr %2, align 8, !tbaa !11
  %3 = load ptr, ptr %2, align 8, !tbaa !11
  %4 = getelementptr inbounds nuw %"struct.Luau::Type", ptr %3, i32 0, i32 0
  %5 = call noundef ptr @_ZN4Luau6get_ifINS_11GenericTypeEJNS_9Unifiable5BoundIPKNS_4TypeEEENS2_5ErrorIS6_EENS_8FreeTypeES1_NS_13PrimitiveTypeENS_13SingletonTypeENS_11BlockedTypeENS_20PendingExpansionTypeENS_12FunctionTypeENS_9TableTypeENS_13MetatableTypeENS_9ClassTypeENS_7AnyTypeENS_9UnionTypeENS_16IntersectionTypeENS_8LazyTypeENS_11UnknownTypeENS_9NeverTypeENS_12NegationTypeENS_12NoRefineTypeENS_24TypeFunctionInstanceTypeEEEEPKT_PKNS_7VariantIJDpT0_EEE(ptr noundef %4)
  ret ptr %5
}

; Function Attrs: mustprogress uwtable
define linkonce_odr dso_local noundef ptr @_ZN4Luau3getINS_24TypeFunctionInstanceTypeEEEPKT_PKNS_4TypeE(ptr noundef %0) #5 comdat {
  %2 = alloca ptr, align 8
  store ptr %0, ptr %2, align 8, !tbaa !11
  %3 = load ptr, ptr %2, align 8, !tbaa !11
  %4 = getelementptr inbounds nuw %"struct.Luau::Type", ptr %3, i32 0, i32 0
  %5 = call noundef ptr @_ZN4Luau6get_ifINS_24TypeFunctionInstanceTypeEJNS_9Unifiable5BoundIPKNS_4TypeEEENS2_5ErrorIS6_EENS_8FreeTypeENS_11GenericTypeENS_13PrimitiveTypeENS_13SingletonTypeENS_11BlockedTypeENS_20PendingExpansionTypeENS_12FunctionTypeENS_9TableTypeENS_13MetatableTypeENS_9ClassTypeENS_7AnyTypeENS_9UnionTypeENS_16IntersectionTypeENS_8LazyTypeENS_11UnknownTypeENS_9NeverTypeENS_12NegationTypeENS_12NoRefineTypeES1_EEEPKT_PKNS_7VariantIJDpT0_EEE(ptr noundef %4)
  ret ptr %5
}

; Function Attrs: mustprogress uwtable
define dso_local noundef zeroext i1 @_ZN4Luau28TypeFunctionReductionGuesser19operandIsAssignableEPKNS_4TypeE(ptr noundef nonnull align 8 dereferenceable(176) %0, ptr noundef %1) #5 align 2 {
  %3 = alloca i1, align 1
  %4 = alloca ptr, align 8
  %5 = alloca ptr, align 8
  store ptr %0, ptr %4, align 8, !tbaa !8
  store ptr %1, ptr %5, align 8, !tbaa !11
  %6 = load ptr, ptr %4, align 8
  %7 = load ptr, ptr %5, align 8, !tbaa !11
  %8 = call noundef ptr @_ZN4Luau3getINS_24TypeFunctionInstanceTypeEEEPKT_PKNS_4TypeE(ptr noundef %7)
  %9 = icmp ne ptr %8, null
  br i1 %9, label %10, label %11

10:                                               ; preds = %2
  store i1 true, ptr %3, align 1
  br label %21

11:                                               ; preds = %2
  %12 = load ptr, ptr %5, align 8, !tbaa !11
  %13 = call noundef ptr @_ZN4Luau3getINS_11GenericTypeEEEPKT_PKNS_4TypeE(ptr noundef %12)
  %14 = icmp ne ptr %13, null
  br i1 %14, label %15, label %16

15:                                               ; preds = %11
  store i1 true, ptr %3, align 1
  br label %21

16:                                               ; preds = %11
  %17 = getelementptr inbounds nuw %"struct.Luau::TypeFunctionReductionGuesser", ptr %6, i32 0, i32 3
  %18 = call noundef zeroext i1 @_ZNK4Luau12DenseHashSetIPKNS_4TypeENS_16DenseHashPointerESt8equal_toIS3_EE8containsERKS3_(ptr noundef nonnull align 8 dereferenceable(40) %17, ptr noundef nonnull align 8 dereferenceable(8) %5)
  br i1 %18, label %19, label %20

19:                                               ; preds = %16
  store i1 true, ptr %3, align 1
  br label %21

20:                                               ; preds = %16
  store i1 false, ptr %3, align 1
  br label %21

21:                                               ; preds = %20, %19, %15, %10
  %22 = load i1, ptr %3, align 1
  ret i1 %22
}