; Function Attrs: mustprogress nofree norecurse nosync nounwind willreturn memory(read, inaccessiblemem: none) uwtable
define dso_local noundef zeroext i1 @_ZN4Luau28TypeFunctionReductionGuesser19operandIsAssignableEPKNS_4TypeE(ptr noundef nonnull readonly align 8 captures(none) dereferenceable(176) %0, ptr noundef %1) local_unnamed_addr #14 align 2 {
  %.not.i.i = icmp eq ptr %1, null
  br i1 %.not.i.i, label %.thread, label %3

3:                                                ; preds = %2
  %4 = load i32, ptr %1, align 8, !tbaa !85
  switch i32 %4, label %.thread [
    i32 20, label %_ZN4Luau3getINS_24TypeFunctionInstanceTypeEEEPKT_PKNS_4TypeE.exit
    i32 3, label %_ZN4Luau3getINS_24TypeFunctionInstanceTypeEEEPKT_PKNS_4TypeE.exit
  ]

.thread:                                          ; preds = %3, %2
  %5 = getelementptr inbounds nuw i8, ptr %0, i64 112
  %6 = getelementptr inbounds nuw i8, ptr %0, i64 128
  %7 = load i64, ptr %6, align 8, !tbaa !20
  %8 = icmp eq i64 %7, 0
  br i1 %8, label %_ZN4Luau3getINS_24TypeFunctionInstanceTypeEEEPKT_PKNS_4TypeE.exit, label %9

9:                                                ; preds = %.thread
  %10 = getelementptr inbounds nuw i8, ptr %0, i64 136
  %11 = load ptr, ptr %10, align 8, !tbaa !30
  %12 = icmp eq ptr %1, %11
  br i1 %12, label %_ZN4Luau3getINS_24TypeFunctionInstanceTypeEEEPKT_PKNS_4TypeE.exit, label %13

13:                                               ; preds = %9
  %14 = getelementptr inbounds nuw i8, ptr %0, i64 120
  %15 = load i64, ptr %14, align 8, !tbaa !107
  %16 = add i64 %15, -1
  %17 = ptrtoint ptr %1 to i64
  %18 = lshr i64 %17, 4
  %19 = lshr i64 %17, 9
  %20 = xor i64 %18, %19
  %21 = load ptr, ptr %5, align 8, !tbaa !106
  br label %22

22:                                               ; preds = %27, %13
  %.pn.i.i = phi i64 [ %20, %13 ], [ %29, %27 ]
  %.02032.i.i = phi i64 [ 0, %13 ], [ %28, %27 ]
  %.02133.i.i = and i64 %.pn.i.i, %16
  %23 = getelementptr inbounds nuw ptr, ptr %21, i64 %.02133.i.i
  %24 = load ptr, ptr %23, align 8, !tbaa !30
  %25 = icmp eq ptr %24, %1
  %26 = icmp eq ptr %24, %11
  %or.cond = or i1 %25, %26
  br i1 %or.cond, label %_ZN4Luau3getINS_24TypeFunctionInstanceTypeEEEPKT_PKNS_4TypeE.exit, label %27

27:                                               ; preds = %22
  %28 = add i64 %.02032.i.i, 1
  %29 = add i64 %28, %.02133.i.i
  %.not.i.i4 = icmp ugt i64 %28, %16
  br i1 %.not.i.i4, label %_ZN4Luau3getINS_24TypeFunctionInstanceTypeEEEPKT_PKNS_4TypeE.exit, label %22, !llvm.loop !236

_ZN4Luau3getINS_24TypeFunctionInstanceTypeEEEPKT_PKNS_4TypeE.exit: ; preds = %27, %22, %3, %3, %9, %.thread
  %.0 = phi i1 [ true, %3 ], [ false, %.thread ], [ false, %9 ], [ true, %3 ], [ %25, %22 ], [ %25, %27 ]
  ret i1 %.0
}